; Function Attrs: inlinehint mustprogress nounwind uwtable
define internal void @_ZN12rewriter_tplIN6spacer12_GLOBAL__N_116mbc_rewriter_cfgEED2Ev(ptr noundef nonnull align 8 dereferenceable(536) initializes((0, 8)) %0) unnamed_addr #8 align 2 personality ptr @__gxx_personality_v0 {
  store ptr getelementptr inbounds nuw inrange(-16, 16) (i8, ptr @_ZTV12rewriter_tplIN6spacer12_GLOBAL__N_116mbc_rewriter_cfgEE, i64 16), ptr %0, align 8, !tbaa !99
  %2 = getelementptr inbounds nuw i8, ptr %0, i64 528
  %3 = load ptr, ptr %2, align 8, !tbaa !144
  %.not.i.i = icmp eq ptr %3, null
  br i1 %.not.i.i, label %_ZN6vectorIjLb0EjED2Ev.exit, label %4

4:                                                ; preds = %1
  %5 = getelementptr inbounds i8, ptr %3, i64 -8
  invoke void @_ZN6memory10deallocateEPv(ptr noundef nonnull %5)
          to label %_ZN6vectorIjLb0EjED2Ev.exit unwind label %6

6:                                                ; preds = %4
  %7 = landingpad { ptr, i32 }
          catch ptr null
  %8 = extractvalue { ptr, i32 } %7, 0
  tail call void @__clang_call_terminate(ptr %8) #20
  unreachable

_ZN6vectorIjLb0EjED2Ev.exit:                      ; preds = %1, %4
  %9 = getelementptr inbounds nuw i8, ptr %0, i64 512
  %10 = load ptr, ptr %9, align 8, !tbaa !143
  %.not.i.i1 = icmp eq ptr %10, null
  br i1 %.not.i.i1, label %_ZN7obj_refI3app11ast_managerED2Ev.exit, label %11

11:                                               ; preds = %_ZN6vectorIjLb0EjED2Ev.exit
  %12 = getelementptr inbounds nuw i8, ptr %0, i64 520
  %13 = load ptr, ptr %12, align 8, !tbaa !154
  %14 = getelementptr inbounds nuw i8, ptr %10, i64 8
  %15 = load i32, ptr %14, align 4, !tbaa !151
  %16 = add i32 %15, -1
  store i32 %16, ptr %14, align 4, !tbaa !151
  %17 = icmp eq i32 %16, 0
  br i1 %17, label %18, label %_ZN7obj_refI3app11ast_managerED2Ev.exit

18:                                               ; preds = %11
  invoke void @_ZN11ast_manager11delete_nodeEP3ast(ptr noundef nonnull align 8 dereferenceable(976) %13, ptr noundef nonnull %10)
          to label %_ZN7obj_refI3app11ast_managerED2Ev.exit unwind label %19

19:                                               ; preds = %18
  %20 = landingpad { ptr, i32 }
          catch ptr null
  %21 = extractvalue { ptr, i32 } %20, 0
  tail call void @__clang_call_terminate(ptr %21) #20
  unreachable

_ZN7obj_refI3app11ast_managerED2Ev.exit:          ; preds = %_ZN6vectorIjLb0EjED2Ev.exit, %11, %18
  %22 = getelementptr inbounds nuw i8, ptr %0, i64 496
  %23 = load ptr, ptr %22, align 8, !tbaa !143
  %.not.i.i2 = icmp eq ptr %23, null
  br i1 %.not.i.i2, label %_ZN7obj_refI3app11ast_managerED2Ev.exit3, label %24

24:                                               ; preds = %_ZN7obj_refI3app11ast_managerED2Ev.exit
  %25 = getelementptr inbounds nuw i8, ptr %0, i64 504
  %26 = load ptr, ptr %25, align 8, !tbaa !154
  %27 = getelementptr inbounds nuw i8, ptr %23, i64 8
  %28 = load i32, ptr %27, align 4, !tbaa !151
  %29 = add i32 %28, -1
  store i32 %29, ptr %27, align 4, !tbaa !151
  %30 = icmp eq i32 %29, 0
  br i1 %30, label %31, label %_ZN7obj_refI3app11ast_managerED2Ev.exit3

31:                                               ; preds = %24
  invoke void @_ZN11ast_manager11delete_nodeEP3ast(ptr noundef nonnull align 8 dereferenceable(976) %26, ptr noundef nonnull %23)
          to label %_ZN7obj_refI3app11ast_managerED2Ev.exit3 unwind label %32

32:                                               ; preds = %31
  %33 = landingpad { ptr, i32 }
          catch ptr null
  %34 = extractvalue { ptr, i32 } %33, 0
  tail call void @__clang_call_terminate(ptr %34) #20
  unreachable

_ZN7obj_refI3app11ast_managerED2Ev.exit3:         ; preds = %_ZN7obj_refI3app11ast_managerED2Ev.exit, %24, %31
  %35 = getelementptr inbounds nuw i8, ptr %0, i64 480
  %36 = load ptr, ptr %35, align 8, !tbaa !142
  %.not.i.i4 = icmp eq ptr %36, null
  br i1 %.not.i.i4, label %_ZN7obj_refI4expr11ast_managerED2Ev.exit, label %37

37:                                               ; preds = %_ZN7obj_refI3app11ast_managerED2Ev.exit3
  %38 = getelementptr inbounds nuw i8, ptr %0, i64 488
  %39 = load ptr, ptr %38, align 8, !tbaa !153
  %40 = getelementptr inbounds nuw i8, ptr %36, i64 8
  %41 = load i32, ptr %40, align 4, !tbaa !151
  %42 = add i32 %41, -1
  store i32 %42, ptr %40, align 4, !tbaa !151
  %43 = icmp eq i32 %42, 0
  br i1 %43, label %44, label %_ZN7obj_refI4expr11ast_managerED2Ev.exit

44:                                               ; preds = %37
  invoke void @_ZN11ast_manager11delete_nodeEP3ast(ptr noundef nonnull align 8 dereferenceable(976) %39, ptr noundef nonnull %36)
          to label %_ZN7obj_refI4expr11ast_managerED2Ev.exit unwind label %45

45:                                               ; preds = %44
  %46 = landingpad { ptr, i32 }
          catch ptr null
  %47 = extractvalue { ptr, i32 } %46, 0
  tail call void @__clang_call_terminate(ptr %47) #20
  unreachable

_ZN7obj_refI4expr11ast_managerED2Ev.exit:         ; preds = %_ZN7obj_refI3app11ast_managerED2Ev.exit3, %37, %44
  %48 = getelementptr inbounds nuw i8, ptr %0, i64 328
  tail call void @_ZN13rewriter_coreD2Ev(ptr noundef nonnull align 8 dereferenceable(148) %48) #19
  %49 = getelementptr inbounds nuw i8, ptr %0, i64 168
  tail call void @_ZN13rewriter_coreD2Ev(ptr noundef nonnull align 8 dereferenceable(156) %49) #19
  %50 = getelementptr inbounds nuw i8, ptr %0, i64 160
  %51 = load ptr, ptr %50, align 8, !tbaa !137
  %.not.i.i5 = icmp eq ptr %51, null
  br i1 %.not.i.i5, label %_ZN6vectorIP4exprLb0EjED2Ev.exit, label %52

52:                                               ; preds = %_ZN7obj_refI4expr11ast_managerED2Ev.exit
  %53 = getelementptr inbounds i8, ptr %51, i64 -8
  invoke void @_ZN6memory10deallocateEPv(ptr noundef nonnull %53)
          to label %_ZN6vectorIP4exprLb0EjED2Ev.exit unwind label %54

54:                                               ; preds = %52
  %55 = landingpad { ptr, i32 }
          catch ptr null
  %56 = extractvalue { ptr, i32 } %55, 0
  tail call void @__clang_call_terminate(ptr %56) #20
  unreachable

_ZN6vectorIP4exprLb0EjED2Ev.exit:                 ; preds = %_ZN7obj_refI4expr11ast_managerED2Ev.exit, %52
  tail call void @_ZN13rewriter_coreD2Ev(ptr noundef nonnull align 8 dereferenceable(144) %0) #19
  ret void
}